; ModuleID = '20/468.c'
source_filename = "20/468.c"
target datalayout = "e-m:e-p270:32:32-p271:32:32-p272:64:64-i64:64-f80:128-n8:16:32:64-S128"
target triple = "x86_64-pc-linux-gnu"

@.str = private unnamed_addr constant [5 x i8] c"%s%s\00", align 1
@.str.1 = private unnamed_addr constant [4 x i8] c"%s\0A\00", align 1

; Function Attrs: noinline nounwind uwtable
define dso_local void @main() #0 {
  %1 = alloca [13 x i8], align 1
  %2 = alloca [4 x i8], align 1
  %3 = alloca i32, align 4
  %4 = alloca i32, align 4
  %5 = alloca i32, align 4
  %6 = alloca i32, align 4
  br label %7

7:                                                ; preds = %93, %0
  %8 = getelementptr inbounds [13 x i8], [13 x i8]* %1, i64 0, i64 0
  %9 = getelementptr inbounds [4 x i8], [4 x i8]* %2, i64 0, i64 0
  %10 = call i32 (i8*, ...) @__isoc99_scanf(i8* getelementptr inbounds ([5 x i8], [5 x i8]* @.str, i64 0, i64 0), i8* %8, i8* %9)
  %11 = icmp ne i32 %10, -1
  br i1 %11, label %12, label %96

12:                                               ; preds = %7
  %13 = getelementptr inbounds [13 x i8], [13 x i8]* %1, i64 0, i64 0
  %14 = call i64 @strlen(i8* %13) #3
  %15 = trunc i64 %14 to i32
  store i32 %15, i32* %3, align 4
  store i32 0, i32* %4, align 4
  br label %16

16:                                               ; preds = %90, %12
  %17 = load i32, i32* %4, align 4
  %18 = load i32, i32* %3, align 4
  %19 = icmp slt i32 %17, %18
  br i1 %19, label %20, label %93

20:                                               ; preds = %16
  store i32 0, i32* %5, align 4
  br label %21

21:                                               ; preds = %39, %20
  %22 = load i32, i32* %5, align 4
  %23 = load i32, i32* %3, align 4
  %24 = icmp slt i32 %22, %23
  br i1 %24, label %25, label %42

25:                                               ; preds = %21
  %26 = load i32, i32* %4, align 4
  %27 = sext i32 %26 to i64
  %28 = getelementptr inbounds [13 x i8], [13 x i8]* %1, i64 0, i64 %27
  %29 = load i8, i8* %28, align 1
  %30 = sext i8 %29 to i32
  %31 = load i32, i32* %5, align 4
  %32 = sext i32 %31 to i64
  %33 = getelementptr inbounds [13 x i8], [13 x i8]* %1, i64 0, i64 %32
  %34 = load i8, i8* %33, align 1
  %35 = sext i8 %34 to i32
  %36 = icmp slt i32 %30, %35
  br i1 %36, label %37, label %38

37:                                               ; preds = %25
  br label %42

38:                                               ; preds = %25
  br label %39

39:                                               ; preds = %38
  %40 = load i32, i32* %5, align 4
  %41 = add nsw i32 %40, 1
  store i32 %41, i32* %5, align 4
  br label %21

42:                                               ; preds = %37, %21
  %43 = load i32, i32* %5, align 4
  %44 = load i32, i32* %3, align 4
  %45 = icmp eq i32 %43, %44
  br i1 %45, label %46, label %89

46:                                               ; preds = %42
  %47 = load i32, i32* %3, align 4
  %48 = add nsw i32 %47, 3
  store i32 %48, i32* %6, align 4
  br label %49

49:                                               ; preds = %63, %46
  %50 = load i32, i32* %6, align 4
  %51 = load i32, i32* %4, align 4
  %52 = add nsw i32 %51, 3
  %53 = icmp sgt i32 %50, %52
  br i1 %53, label %54, label %66

54:                                               ; preds = %49
  %55 = load i32, i32* %6, align 4
  %56 = sub nsw i32 %55, 3
  %57 = sext i32 %56 to i64
  %58 = getelementptr inbounds [13 x i8], [13 x i8]* %1, i64 0, i64 %57
  %59 = load i8, i8* %58, align 1
  %60 = load i32, i32* %6, align 4
  %61 = sext i32 %60 to i64
  %62 = getelementptr inbounds [13 x i8], [13 x i8]* %1, i64 0, i64 %61
  store i8 %59, i8* %62, align 1
  br label %63

63:                                               ; preds = %54
  %64 = load i32, i32* %6, align 4
  %65 = add nsw i32 %64, -1
  store i32 %65, i32* %6, align 4
  br label %49

66:                                               ; preds = %49
  %67 = load i32, i32* %3, align 4
  %68 = add nsw i32 %67, 3
  %69 = sext i32 %68 to i64
  %70 = getelementptr inbounds [13 x i8], [13 x i8]* %1, i64 0, i64 %69
  store i8 0, i8* %70, align 1
  %71 = getelementptr inbounds [4 x i8], [4 x i8]* %2, i64 0, i64 0
  %72 = load i8, i8* %71, align 1
  %73 = load i32, i32* %4, align 4
  %74 = add nsw i32 %73, 1
  %75 = sext i32 %74 to i64
  %76 = getelementptr inbounds [13 x i8], [13 x i8]* %1, i64 0, i64 %75
  store i8 %72, i8* %76, align 1
  %77 = getelementptr inbounds [4 x i8], [4 x i8]* %2, i64 0, i64 1
  %78 = load i8, i8* %77, align 1
  %79 = load i32, i32* %4, align 4
  %80 = add nsw i32 %79, 2
  %81 = sext i32 %80 to i64
  %82 = getelementptr inbounds [13 x i8], [13 x i8]* %1, i64 0, i64 %81
  store i8 %78, i8* %82, align 1
  %83 = getelementptr inbounds [4 x i8], [4 x i8]* %2, i64 0, i64 2
  %84 = load i8, i8* %83, align 1
  %85 = load i32, i32* %4, align 4
  %86 = add nsw i32 %85, 3
  %87 = sext i32 %86 to i64
  %88 = getelementptr inbounds [13 x i8], [13 x i8]* %1, i64 0, i64 %87
  store i8 %84, i8* %88, align 1
  br label %93

89:                                               ; preds = %42
  br label %90

90:                                               ; preds = %89
  %91 = load i32, i32* %4, align 4
  %92 = add nsw i32 %91, 1
  store i32 %92, i32* %4, align 4
  br label %16

93:                                               ; preds = %66, %16
  %94 = getelementptr inbounds [13 x i8], [13 x i8]* %1, i64 0, i64 0
  %95 = call i32 (i8*, ...) @printf(i8* getelementptr inbounds ([4 x i8], [4 x i8]* @.str.1, i64 0, i64 0), i8* %94)
  br label %7

96:                                               ; preds = %7
  ret void
}

declare dso_local i32 @__isoc99_scanf(i8*, ...) #1

; Function Attrs: nounwind readonly
declare dso_local i64 @strlen(i8*) #2

declare dso_local i32 @printf(i8*, ...) #1


!llvm.module.flags = !{!0}
!llvm.ident = !{!1}

!0 = !{i32 1, !"wchar_size", i32 4}
!1 = !{!"clang version 10.0.0-4ubuntu1 "}
